target datalayout = "e-m:e-p270:32:32-p271:32:32-p272:64:64-i64:64-i128:128-f80:128-n8:16:32:64-S128"
target triple = "x86_64-pc-linux-gnu"

%struct.pmix_proc = type { [256 x i8], i32 }

; Function Attrs: inlinehint nounwind uwtable
define internal i64 @pmix_nslen(ptr noundef %0) #1 {
  %2 = alloca i64, align 8
  %3 = alloca ptr, align 8
  %4 = alloca i64, align 8
  %5 = alloca i64, align 8
  %6 = alloca i32, align 4
  store ptr %0, ptr %3, align 8, !tbaa !3
  call void @llvm.lifetime.start.p0(i64 8, ptr %4) #15
  call void @llvm.lifetime.start.p0(i64 8, ptr %5) #15
  %7 = load ptr, ptr %3, align 8, !tbaa !3
  %8 = icmp eq ptr null, %7
  br i1 %8, label %9, label %10

9:                                                ; preds = %1
  store i64 0, ptr %2, align 8
  store i32 1, ptr %6, align 4
  br label %29

10:                                               ; preds = %1
  store i64 256, ptr %5, align 8, !tbaa !30
  store i64 0, ptr %4, align 8, !tbaa !30
  br label %11

11:                                               ; preds = %22, %10
  %12 = load i64, ptr %4, align 8, !tbaa !30
  %13 = load i64, ptr %5, align 8, !tbaa !30
  %14 = icmp ult i64 %12, %13
  br i1 %14, label %15, label %27

15:                                               ; preds = %11
  %16 = load ptr, ptr %3, align 8, !tbaa !3
  %17 = load i8, ptr %16, align 1, !tbaa !29
  %18 = sext i8 %17 to i32
  %19 = icmp eq i32 0, %18
  br i1 %19, label %20, label %21

20:                                               ; preds = %15
  br label %27

21:                                               ; preds = %15
  br label %22

22:                                               ; preds = %21
  %23 = load i64, ptr %4, align 8, !tbaa !30
  %24 = add i64 %23, 1
  store i64 %24, ptr %4, align 8, !tbaa !30
  %25 = load ptr, ptr %3, align 8, !tbaa !3
  %26 = getelementptr inbounds nuw i8, ptr %25, i32 1
  store ptr %26, ptr %3, align 8, !tbaa !3
  br label %11, !llvm.loop !225

27:                                               ; preds = %20, %11
  %28 = load i64, ptr %4, align 8, !tbaa !30
  store i64 %28, ptr %2, align 8
  store i32 1, ptr %6, align 4
  br label %29

29:                                               ; preds = %27, %9
  call void @llvm.lifetime.end.p0(i64 8, ptr %5) #15
  call void @llvm.lifetime.end.p0(i64 8, ptr %4) #15
  %30 = load i64, ptr %2, align 8
  ret i64 %30
}

; Function Attrs: inlinehint nounwind uwtable
define internal zeroext i1 @pmix_bfrops_base_tma_nspace_invalid(ptr noundef %0, ptr noundef %1) #1 {
  %3 = alloca i1, align 1
  %4 = alloca ptr, align 8
  %5 = alloca ptr, align 8
  store ptr %0, ptr %4, align 8, !tbaa !3
  store ptr %1, ptr %5, align 8, !tbaa !8
  %6 = load ptr, ptr %4, align 8, !tbaa !3
  %7 = icmp eq ptr null, %6
  br i1 %7, label %12, label %8

8:                                                ; preds = %2
  %9 = load ptr, ptr %4, align 8, !tbaa !3
  %10 = call i64 @pmix_nslen(ptr noundef %9)
  %11 = icmp eq i64 0, %10
  br i1 %11, label %12, label %13

12:                                               ; preds = %8, %2
  store i1 true, ptr %3, align 1
  br label %14

13:                                               ; preds = %8
  store i1 false, ptr %3, align 1
  br label %14

14:                                               ; preds = %13, %12
  %15 = load i1, ptr %3, align 1
  ret i1 %15
}

; Function Attrs: inlinehint nounwind uwtable
define internal zeroext i1 @pmix_bfrops_base_tma_check_rank(i32 noundef %0, i32 noundef %1, ptr noundef %2) #1 {
  %4 = alloca i1, align 1
  %5 = alloca i32, align 4
  %6 = alloca i32, align 4
  %7 = alloca ptr, align 8
  store i32 %0, ptr %5, align 4, !tbaa !12
  store i32 %1, ptr %6, align 4, !tbaa !12
  store ptr %2, ptr %7, align 8, !tbaa !8
  %8 = load i32, ptr %5, align 4, !tbaa !12
  %9 = load i32, ptr %6, align 4, !tbaa !12
  %10 = icmp eq i32 %8, %9
  br i1 %10, label %11, label %12

11:                                               ; preds = %3
  store i1 true, ptr %4, align 1
  br label %20

12:                                               ; preds = %3
  %13 = load i32, ptr %5, align 4, !tbaa !12
  %14 = icmp eq i32 -2, %13
  br i1 %14, label %18, label %15

15:                                               ; preds = %12
  %16 = load i32, ptr %6, align 4, !tbaa !12
  %17 = icmp eq i32 -2, %16
  br i1 %17, label %18, label %19

18:                                               ; preds = %15, %12
  store i1 true, ptr %4, align 1
  br label %20

19:                                               ; preds = %15
  store i1 false, ptr %4, align 1
  br label %20

20:                                               ; preds = %19, %18, %11
  %21 = load i1, ptr %4, align 1
  ret i1 %21
}

; Function Attrs: inlinehint nounwind uwtable
define internal zeroext i1 @pmix_bfrops_base_tma_check_nspace(ptr noundef %0, ptr noundef %1, ptr noundef %2) #1 {
  %4 = alloca i1, align 1
  %5 = alloca ptr, align 8
  %6 = alloca ptr, align 8
  %7 = alloca ptr, align 8
  store ptr %0, ptr %5, align 8, !tbaa !3
  store ptr %1, ptr %6, align 8, !tbaa !3
  store ptr %2, ptr %7, align 8, !tbaa !8
  %8 = load ptr, ptr %5, align 8, !tbaa !3
  %9 = load ptr, ptr %7, align 8, !tbaa !8
  %10 = call zeroext i1 @pmix_bfrops_base_tma_nspace_invalid(ptr noundef %8, ptr noundef %9)
  br i1 %10, label %11, label %12

11:                                               ; preds = %3
  store i1 true, ptr %4, align 1
  br label %24

12:                                               ; preds = %3
  %13 = load ptr, ptr %6, align 8, !tbaa !3
  %14 = load ptr, ptr %7, align 8, !tbaa !8
  %15 = call zeroext i1 @pmix_bfrops_base_tma_nspace_invalid(ptr noundef %13, ptr noundef %14)
  br i1 %15, label %16, label %17

16:                                               ; preds = %12
  store i1 true, ptr %4, align 1
  br label %24

17:                                               ; preds = %12
  %18 = load ptr, ptr %5, align 8, !tbaa !3
  %19 = load ptr, ptr %6, align 8, !tbaa !3
  %20 = call i32 @strncmp(ptr noundef %18, ptr noundef %19, i64 noundef 255) #14
  %21 = icmp eq i32 0, %20
  br i1 %21, label %22, label %23

22:                                               ; preds = %17
  store i1 true, ptr %4, align 1
  br label %24

23:                                               ; preds = %17
  store i1 false, ptr %4, align 1
  br label %24

24:                                               ; preds = %23, %22, %16, %11
  %25 = load i1, ptr %4, align 1
  ret i1 %25
}

; Function Attrs: inlinehint nounwind uwtable
define internal zeroext i1 @pmix_bfrops_base_tma_check_procid(ptr noundef %0, ptr noundef %1, ptr noundef %2) #1 {
  %4 = alloca i1, align 1
  %5 = alloca ptr, align 8
  %6 = alloca ptr, align 8
  %7 = alloca ptr, align 8
  store ptr %0, ptr %5, align 8, !tbaa !10
  store ptr %1, ptr %6, align 8, !tbaa !10
  store ptr %2, ptr %7, align 8, !tbaa !8
  %8 = load ptr, ptr %5, align 8, !tbaa !10
  %9 = getelementptr inbounds nuw %struct.pmix_proc, ptr %8, i32 0, i32 0
  %10 = getelementptr inbounds [256 x i8], ptr %9, i64 0, i64 0
  %11 = load ptr, ptr %6, align 8, !tbaa !10
  %12 = getelementptr inbounds nuw %struct.pmix_proc, ptr %11, i32 0, i32 0
  %13 = getelementptr inbounds [256 x i8], ptr %12, i64 0, i64 0
  %14 = load ptr, ptr %7, align 8, !tbaa !8
  %15 = call zeroext i1 @pmix_bfrops_base_tma_check_nspace(ptr noundef %10, ptr noundef %13, ptr noundef %14)
  br i1 %15, label %17, label %16

16:                                               ; preds = %3
  store i1 false, ptr %4, align 1
  br label %26

17:                                               ; preds = %3
  %18 = load ptr, ptr %5, align 8, !tbaa !10
  %19 = getelementptr inbounds nuw %struct.pmix_proc, ptr %18, i32 0, i32 1
  %20 = load i32, ptr %19, align 4, !tbaa !14
  %21 = load ptr, ptr %6, align 8, !tbaa !10
  %22 = getelementptr inbounds nuw %struct.pmix_proc, ptr %21, i32 0, i32 1
  %23 = load i32, ptr %22, align 4, !tbaa !14
  %24 = load ptr, ptr %7, align 8, !tbaa !8
  %25 = call zeroext i1 @pmix_bfrops_base_tma_check_rank(i32 noundef %20, i32 noundef %23, ptr noundef %24)
  store i1 %25, ptr %4, align 1
  br label %26

26:                                               ; preds = %17, %16
  %27 = load i1, ptr %4, align 1
  ret i1 %27
}

; Function Attrs: nounwind uwtable
define zeroext i1 @PMIx_Check_procid(ptr noundef %0, ptr noundef %1) #0 {
  %3 = alloca ptr, align 8
  %4 = alloca ptr, align 8
  store ptr %0, ptr %3, align 8, !tbaa !10
  store ptr %1, ptr %4, align 8, !tbaa !10
  %5 = load ptr, ptr %3, align 8, !tbaa !10
  %6 = load ptr, ptr %4, align 8, !tbaa !10
  %7 = call zeroext i1 @pmix_bfrops_base_tma_check_procid(ptr noundef %5, ptr noundef %6, ptr noundef null)
  ret i1 %7
}