; Function Attrs: nofree nounwind memory(argmem: read) uwtable
define zeroext i1 @PMIx_Check_procid(ptr noundef readonly captures(address_is_null) %0, ptr noundef readonly captures(address_is_null) %1) local_unnamed_addr #2 {
  %3 = icmp eq ptr %0, null
  br i1 %3, label %pmix_bfrops_base_tma_check_nspace.exit.thread.i, label %.preheader.i.i.i.i

.preheader.i.i.i.i:                               ; preds = %2, %6
  %.0711.i.i.i.i = phi i64 [ %7, %6 ], [ 0, %2 ]
  %.0810.i.i.i.i = phi ptr [ %8, %6 ], [ %0, %2 ]
  %4 = load i8, ptr %.0810.i.i.i.i, align 1, !tbaa !3
  %5 = icmp eq i8 %4, 0
  br i1 %5, label %pmix_bfrops_base_tma_nspace_invalid.exit.i.i, label %6

6:                                                ; preds = %.preheader.i.i.i.i
  %7 = add nuw nsw i64 %.0711.i.i.i.i, 1
  %8 = getelementptr inbounds nuw i8, ptr %.0810.i.i.i.i, i64 1
  %exitcond.not.i.i.i.i = icmp eq i64 %7, 256
  br i1 %exitcond.not.i.i.i.i, label %pmix_bfrops_base_tma_nspace_invalid.exit.thread2.i.i, label %.preheader.i.i.i.i, !llvm.loop !8

pmix_bfrops_base_tma_nspace_invalid.exit.i.i:     ; preds = %.preheader.i.i.i.i
  %9 = icmp eq i64 %.0711.i.i.i.i, 0
  %10 = icmp eq ptr %1, null
  %or.cond.i.i = or i1 %10, %9
  br i1 %or.cond.i.i, label %pmix_bfrops_base_tma_check_nspace.exit.thread.i, label %.preheader.i.i7.i.i.preheader

pmix_bfrops_base_tma_nspace_invalid.exit.thread2.i.i: ; preds = %6
  %.old.i.i = icmp eq ptr %1, null
  br i1 %.old.i.i, label %pmix_bfrops_base_tma_check_nspace.exit.thread.i, label %.preheader.i.i7.i.i.preheader

.preheader.i.i7.i.i.preheader:                    ; preds = %pmix_bfrops_base_tma_nspace_invalid.exit.thread2.i.i, %pmix_bfrops_base_tma_nspace_invalid.exit.i.i
  br label %.preheader.i.i7.i.i

.preheader.i.i7.i.i:                              ; preds = %.preheader.i.i7.i.i.preheader, %13
  %.0711.i.i8.i.i = phi i64 [ %14, %13 ], [ 0, %.preheader.i.i7.i.i.preheader ]
  %.0810.i.i9.i.i = phi ptr [ %15, %13 ], [ %1, %.preheader.i.i7.i.i.preheader ]
  %11 = load i8, ptr %.0810.i.i9.i.i, align 1, !tbaa !3
  %12 = icmp eq i8 %11, 0
  br i1 %12, label %pmix_bfrops_base_tma_nspace_invalid.exit14.i.i, label %13

13:                                               ; preds = %.preheader.i.i7.i.i
  %14 = add nuw nsw i64 %.0711.i.i8.i.i, 1
  %15 = getelementptr inbounds nuw i8, ptr %.0810.i.i9.i.i, i64 1
  %exitcond.not.i.i10.i.i = icmp eq i64 %14, 256
  br i1 %exitcond.not.i.i10.i.i, label %pmix_bfrops_base_tma_check_nspace.exit.i, label %.preheader.i.i7.i.i, !llvm.loop !8

pmix_bfrops_base_tma_nspace_invalid.exit14.i.i:   ; preds = %.preheader.i.i7.i.i
  %16 = icmp eq i64 %.0711.i.i8.i.i, 0
  br i1 %16, label %pmix_bfrops_base_tma_check_nspace.exit.thread.i, label %pmix_bfrops_base_tma_check_nspace.exit.i

pmix_bfrops_base_tma_check_nspace.exit.i:         ; preds = %13, %pmix_bfrops_base_tma_nspace_invalid.exit14.i.i
  %17 = tail call i32 @strncmp(ptr noundef nonnull readonly dereferenceable(1) %0, ptr noundef nonnull readonly dereferenceable(1) %1, i64 noundef 255) #42
  %18 = icmp eq i32 %17, 0
  br i1 %18, label %pmix_bfrops_base_tma_check_nspace.exit.thread.i, label %pmix_bfrops_base_tma_check_procid.exit

pmix_bfrops_base_tma_check_nspace.exit.thread.i:  ; preds = %pmix_bfrops_base_tma_check_nspace.exit.i, %pmix_bfrops_base_tma_nspace_invalid.exit14.i.i, %pmix_bfrops_base_tma_nspace_invalid.exit.thread2.i.i, %pmix_bfrops_base_tma_nspace_invalid.exit.i.i, %2
  %19 = getelementptr inbounds nuw i8, ptr %0, i64 256
  %20 = load i32, ptr %19, align 4, !tbaa !9
  %21 = getelementptr inbounds nuw i8, ptr %1, i64 256
  %22 = load i32, ptr %21, align 4, !tbaa !9
  %23 = icmp eq i32 %20, %22
  br i1 %23, label %pmix_bfrops_base_tma_check_procid.exit, label %24

24:                                               ; preds = %pmix_bfrops_base_tma_check_nspace.exit.thread.i
  %25 = icmp eq i32 %20, -2
  %26 = icmp eq i32 %22, -2
  %or.cond.i7.i = or i1 %25, %26
  br label %pmix_bfrops_base_tma_check_procid.exit

pmix_bfrops_base_tma_check_procid.exit:           ; preds = %pmix_bfrops_base_tma_check_nspace.exit.i, %pmix_bfrops_base_tma_check_nspace.exit.thread.i, %24
  %.0.i = phi i1 [ false, %pmix_bfrops_base_tma_check_nspace.exit.i ], [ true, %pmix_bfrops_base_tma_check_nspace.exit.thread.i ], [ %or.cond.i7.i, %24 ]
  ret i1 %.0.i
}